target datalayout = "e-m:e-p270:32:32-p271:32:32-p272:64:64-i64:64-i128:128-f80:128-n8:16:32:64-S128"
target triple = "x86_64-pc-linux-gnu"

%struct._php_stream_ops = type { ptr, ptr, ptr, ptr, ptr, ptr, ptr, ptr, ptr }
%struct._php_stream = type { ptr, ptr, %struct._php_stream_filter_chain, %struct._php_stream_filter_chain, ptr, ptr, %struct._zval_struct, i16, [16 x i8], i32, ptr, ptr, ptr, ptr, i64, ptr, i64, i64, i64, i64, ptr }
%struct._php_stream_filter_chain = type { ptr, ptr, ptr }
%struct._zval_struct = type { %union._zend_value, %union.anon, %union.anon.2 }
%union._zend_value = type { i64 }
%union.anon = type { i32 }
%union.anon.2 = type { i32 }
%struct.php_stream_memory_data = type { ptr, i64, i32 }
%struct._zend_string = type { %struct._zend_refcounted_h, i64, i64, [1 x i8] }
%struct._zend_refcounted_h = type { i32, %union.anon.3 }
%union.anon.3 = type { i32 }
%struct.php_stream_temp_data = type { ptr, i64, i32, %struct._zval_struct, ptr }

@php_stream_stdio_ops = external global %struct._php_stream_ops, align 8
@.str.10 = private unnamed_addr constant [33 x i8] c"Unable to create temporary file.\00", align 1

; Function Attrs: nounwind uwtable
define ptr @_php_stream_memory_get_buffer(ptr noundef %0) #0 {
  %2 = alloca ptr, align 8
  %3 = alloca ptr, align 8
  store ptr %0, ptr %2, align 8
  %4 = load ptr, ptr %2, align 8
  %5 = getelementptr inbounds %struct._php_stream, ptr %4, i32 0, i32 1
  %6 = load ptr, ptr %5, align 8
  store ptr %6, ptr %3, align 8
  %7 = load ptr, ptr %3, align 8
  %8 = icmp ne ptr %7, null
  call void @llvm.assume(i1 %8)
  %9 = load ptr, ptr %3, align 8
  %10 = getelementptr inbounds %struct.php_stream_memory_data, ptr %9, i32 0, i32 0
  %11 = load ptr, ptr %10, align 8
  ret ptr %11
}

; Function Attrs: nounwind uwtable
define internal i32 @php_stream_temp_cast(ptr noundef %0, i32 noundef %1, ptr noundef %2) #0 {
  %4 = alloca i32, align 4
  %5 = alloca ptr, align 8
  %6 = alloca i32, align 4
  %7 = alloca ptr, align 8
  %8 = alloca ptr, align 8
  %9 = alloca ptr, align 8
  %10 = alloca ptr, align 8
  %11 = alloca i64, align 8
  store ptr %0, ptr %5, align 8
  store i32 %1, ptr %6, align 4
  store ptr %2, ptr %7, align 8
  %12 = load ptr, ptr %5, align 8
  %13 = getelementptr inbounds %struct._php_stream, ptr %12, i32 0, i32 1
  %14 = load ptr, ptr %13, align 8
  store ptr %14, ptr %8, align 8
  %15 = load ptr, ptr %8, align 8
  %16 = getelementptr inbounds %struct.php_stream_temp_data, ptr %15, i32 0, i32 0
  %17 = load ptr, ptr %16, align 8
  %18 = icmp ne ptr %17, null
  br i1 %18, label %20, label %19

19:                                               ; preds = %3
  store i32 -1, ptr %4, align 4
  br label %90

20:                                               ; preds = %3
  %21 = load ptr, ptr %8, align 8
  %22 = getelementptr inbounds %struct.php_stream_temp_data, ptr %21, i32 0, i32 0
  %23 = load ptr, ptr %22, align 8
  %24 = getelementptr inbounds %struct._php_stream, ptr %23, i32 0, i32 0
  %25 = load ptr, ptr %24, align 8
  %26 = icmp eq ptr %25, @php_stream_stdio_ops
  br i1 %26, label %27, label %34

27:                                               ; preds = %20
  %28 = load ptr, ptr %8, align 8
  %29 = getelementptr inbounds %struct.php_stream_temp_data, ptr %28, i32 0, i32 0
  %30 = load ptr, ptr %29, align 8
  %31 = load i32, ptr %6, align 4
  %32 = load ptr, ptr %7, align 8
  %33 = call i32 @_php_stream_cast(ptr noundef %30, i32 noundef %31, ptr noundef %32, i32 noundef 0)
  store i32 %33, ptr %4, align 4
  br label %90

34:                                               ; preds = %20
  %35 = load ptr, ptr %7, align 8
  %36 = icmp eq ptr %35, null
  br i1 %36, label %37, label %41

37:                                               ; preds = %34
  %38 = load i32, ptr %6, align 4
  %39 = icmp eq i32 %38, 0
  br i1 %39, label %40, label %41

40:                                               ; preds = %37
  store i32 0, ptr %4, align 4
  br label %90

41:                                               ; preds = %37, %34
  %42 = load ptr, ptr %7, align 8
  %43 = icmp eq ptr %42, null
  br i1 %43, label %44, label %45

44:                                               ; preds = %41
  store i32 -1, ptr %4, align 4
  br label %90

45:                                               ; preds = %41
  %46 = call ptr @_php_stream_fopen_tmpfile(i32 noundef 0)
  store ptr %46, ptr %9, align 8
  %47 = load ptr, ptr %9, align 8
  %48 = icmp eq ptr %47, null
  br i1 %48, label %49, label %50

49:                                               ; preds = %45
  call void (ptr, i32, ptr, ...) @php_error_docref(ptr noundef null, i32 noundef 2, ptr noundef @.str.10)
  store i32 -1, ptr %4, align 4
  br label %90

50:                                               ; preds = %45
  %51 = load ptr, ptr %8, align 8
  %52 = getelementptr inbounds %struct.php_stream_temp_data, ptr %51, i32 0, i32 0
  %53 = load ptr, ptr %52, align 8
  %54 = call ptr @_php_stream_memory_get_buffer(ptr noundef %53)
  store ptr %54, ptr %10, align 8
  %55 = load ptr, ptr %9, align 8
  %56 = load ptr, ptr %10, align 8
  %57 = getelementptr inbounds %struct._zend_string, ptr %56, i32 0, i32 3
  %58 = getelementptr inbounds [1 x i8], ptr %57, i64 0, i64 0
  %59 = load ptr, ptr %10, align 8
  %60 = getelementptr inbounds %struct._zend_string, ptr %59, i32 0, i32 2
  %61 = load i64, ptr %60, align 8
  %62 = call i64 @_php_stream_write(ptr noundef %55, ptr noundef %58, i64 noundef %61)
  %63 = load ptr, ptr %8, align 8
  %64 = getelementptr inbounds %struct.php_stream_temp_data, ptr %63, i32 0, i32 0
  %65 = load ptr, ptr %64, align 8
  %66 = call i64 @_php_stream_tell(ptr noundef %65)
  store i64 %66, ptr %11, align 8
  %67 = load ptr, ptr %8, align 8
  %68 = getelementptr inbounds %struct.php_stream_temp_data, ptr %67, i32 0, i32 0
  %69 = load ptr, ptr %68, align 8
  %70 = call i32 @_php_stream_free_enclosed(ptr noundef %69, i32 noundef 3)
  %71 = load ptr, ptr %9, align 8
  %72 = load ptr, ptr %8, align 8
  %73 = getelementptr inbounds %struct.php_stream_temp_data, ptr %72, i32 0, i32 0
  store ptr %71, ptr %73, align 8
  %74 = load ptr, ptr %5, align 8
  %75 = load ptr, ptr %8, align 8
  %76 = getelementptr inbounds %struct.php_stream_temp_data, ptr %75, i32 0, i32 0
  %77 = load ptr, ptr %76, align 8
  %78 = call ptr @php_stream_encloses(ptr noundef %74, ptr noundef %77)
  %79 = load ptr, ptr %8, align 8
  %80 = getelementptr inbounds %struct.php_stream_temp_data, ptr %79, i32 0, i32 0
  %81 = load ptr, ptr %80, align 8
  %82 = load i64, ptr %11, align 8
  %83 = call i32 @_php_stream_seek(ptr noundef %81, i64 noundef %82, i32 noundef 0)
  %84 = load ptr, ptr %8, align 8
  %85 = getelementptr inbounds %struct.php_stream_temp_data, ptr %84, i32 0, i32 0
  %86 = load ptr, ptr %85, align 8
  %87 = load i32, ptr %6, align 4
  %88 = load ptr, ptr %7, align 8
  %89 = call i32 @_php_stream_cast(ptr noundef %86, i32 noundef %87, ptr noundef %88, i32 noundef 1)
  store i32 %89, ptr %4, align 4
  br label %90

90:                                               ; preds = %50, %49, %44, %40, %27, %19
  %91 = load i32, ptr %4, align 4
  ret i32 %91
}