; Function Attrs: nounwind uwtable
define internal i32 @php_stream_temp_cast(ptr noundef %0, i32 noundef %1, ptr noundef %2) #0 {
  %4 = getelementptr inbounds i8, ptr %0, i64 8
  %5 = load ptr, ptr %4, align 8
  %6 = load ptr, ptr %5, align 8
  %.not = icmp eq ptr %6, null
  br i1 %.not, label %37, label %7

7:                                                ; preds = %3
  %8 = load ptr, ptr %6, align 8
  %9 = icmp eq ptr %8, @php_stream_stdio_ops
  br i1 %9, label %10, label %12

10:                                               ; preds = %7
  %11 = tail call i32 @_php_stream_cast(ptr noundef nonnull %6, i32 noundef %1, ptr noundef %2, i32 noundef 0) #20
  br label %37

12:                                               ; preds = %7
  %13 = icmp ne ptr %2, null
  %14 = icmp ne i32 %1, 0
  %or.cond.not = or i1 %14, %13
  %.mux = sext i1 %or.cond.not to i32
  br i1 %13, label %15, label %37

15:                                               ; preds = %12
  %16 = tail call ptr @_php_stream_fopen_tmpfile(i32 noundef 0) #20
  %17 = icmp eq ptr %16, null
  br i1 %17, label %18, label %19

18:                                               ; preds = %15
  tail call void (ptr, i32, ptr, ...) @php_error_docref(ptr noundef null, i32 noundef 2, ptr noundef nonnull @.str.10) #20
  br label %37

19:                                               ; preds = %15
  %20 = load ptr, ptr %5, align 8
  %21 = getelementptr inbounds i8, ptr %20, i64 8
  %22 = load ptr, ptr %21, align 8, !nonnull !4, !noundef !4
  %23 = load ptr, ptr %22, align 8
  %24 = getelementptr inbounds i8, ptr %23, i64 24
  %25 = getelementptr inbounds i8, ptr %23, i64 16
  %26 = load i64, ptr %25, align 8
  %27 = tail call i64 @_php_stream_write(ptr noundef nonnull %16, ptr noundef nonnull %24, i64 noundef %26) #20
  %28 = load ptr, ptr %5, align 8
  %29 = tail call i64 @_php_stream_tell(ptr noundef %28) #20
  %30 = load ptr, ptr %5, align 8
  %31 = tail call i32 @_php_stream_free_enclosed(ptr noundef %30, i32 noundef 3) #20
  store ptr %16, ptr %5, align 8
  %32 = tail call ptr @php_stream_encloses(ptr noundef nonnull %0, ptr noundef nonnull %16) #20
  %33 = load ptr, ptr %5, align 8
  %34 = tail call i32 @_php_stream_seek(ptr noundef %33, i64 noundef %29, i32 noundef 0) #20
  %35 = load ptr, ptr %5, align 8
  %36 = tail call i32 @_php_stream_cast(ptr noundef %35, i32 noundef %1, ptr noundef nonnull %2, i32 noundef 1) #20
  br label %37

37:                                               ; preds = %12, %3, %19, %18, %10
  %.0 = phi i32 [ %11, %10 ], [ -1, %18 ], [ %36, %19 ], [ -1, %3 ], [ %.mux, %12 ]
  ret i32 %.0
}